target datalayout = "e-m:e-p270:32:32-p271:32:32-p272:64:64-i64:64-i128:128-f80:128-n8:16:32:64-S128"
target triple = "x86_64-pc-linux-gnu"

%class.QString = type { ptr }

@.str.38 = private unnamed_addr constant [21 x i8] c"Vertex Color Filling\00", align 1
@.str.39 = private unnamed_addr constant [26 x i8] c"Vertex Color Thresholding\00", align 1
@.str.40 = private unnamed_addr constant [39 x i8] c"Vertex Color Brightness Contrast Gamma\00", align 1
@.str.41 = private unnamed_addr constant [20 x i8] c"Vertex Color Invert\00", align 1
@.str.42 = private unnamed_addr constant [31 x i8] c"Vertex Color Levels Adjustment\00", align 1
@.str.43 = private unnamed_addr constant [27 x i8] c"Vertex Color Colourisation\00", align 1
@.str.44 = private unnamed_addr constant [26 x i8] c"Vertex Color Desaturation\00", align 1
@.str.45 = private unnamed_addr constant [22 x i8] c"Equalize Vertex Color\00", align 1
@.str.46 = private unnamed_addr constant [27 x i8] c"Vertex Color White Balance\00", align 1
@.str.47 = private unnamed_addr constant [13 x i8] c"Perlin color\00", align 1
@.str.48 = private unnamed_addr constant [12 x i8] c"Color noise\00", align 1
@.str.49 = private unnamed_addr constant [25 x i8] c"PerMesh Color Scattering\00", align 1
@.str.50 = private unnamed_addr constant [21 x i8] c"Clamp Vertex Quality\00", align 1
@.str.51 = private unnamed_addr constant [24 x i8] c"Saturate Vertex Quality\00", align 1
@.str.52 = private unnamed_addr constant [27 x i8] c"Colorize by vertex Quality\00", align 1
@.str.53 = private unnamed_addr constant [25 x i8] c"Colorize by face Quality\00", align 1
@.str.54 = private unnamed_addr constant [20 x i8] c"Discrete Curvatures\00", align 1
@.str.55 = private unnamed_addr constant [62 x i8] c"Per Face Quality according to Triangle shape and aspect ratio\00", align 1
@.str.56 = private unnamed_addr constant [31 x i8] c"Smooth: Laplacian Vertex Color\00", align 1
@.str.57 = private unnamed_addr constant [29 x i8] c"Smooth: Laplacian Face Color\00", align 1
@.str.58 = private unnamed_addr constant [31 x i8] c"Transfer Color: Vertex to Face\00", align 1
@.str.59 = private unnamed_addr constant [29 x i8] c"Transfer Color: Mesh to Face\00", align 1
@.str.60 = private unnamed_addr constant [31 x i8] c"Transfer Color: Face to Vertex\00", align 1
@.str.61 = private unnamed_addr constant [34 x i8] c"Transfer Color: Texture to Vertex\00", align 1
@.str.62 = private unnamed_addr constant [18 x i8] c"Random Face Color\00", align 1
@.str.63 = private unnamed_addr constant [23 x i8] c"Random Component Color\00", align 1
@.str.64 = private unnamed_addr constant [33 x i8] c"Transfer Quality: Vertex to Face\00", align 1
@.str.65 = private unnamed_addr constant [33 x i8] c"Transfer Quality: Face to Vertex\00", align 1
@.str.66 = private unnamed_addr constant [7 x i8] c"error!\00", align 1

; Function Attrs: mustprogress uwtable
define linkonce_odr void @_ZN7QStringC2EPKc(ptr noundef nonnull align 8 dereferenceable(8) %0, ptr noundef %1) unnamed_addr #3 comdat align 2 {
  %3 = alloca ptr, align 8
  %4 = alloca ptr, align 8
  store ptr %0, ptr %3, align 8
  store ptr %1, ptr %4, align 8
  %5 = load ptr, ptr %3, align 8
  %6 = getelementptr inbounds %class.QString, ptr %5, i32 0, i32 0
  %7 = load ptr, ptr %4, align 8
  %8 = load ptr, ptr %4, align 8
  %9 = icmp ne ptr %8, null
  br i1 %9, label %10, label %14

10:                                               ; preds = %2
  %11 = load ptr, ptr %4, align 8
  %12 = call i64 @strlen(ptr noundef %11) #26
  %13 = trunc i64 %12 to i32
  br label %15

14:                                               ; preds = %2
  br label %15

15:                                               ; preds = %14, %10
  %16 = phi i32 [ %13, %10 ], [ -1, %14 ]
  %17 = call noundef ptr @_ZN7QString16fromAscii_helperEPKci(ptr noundef %7, i32 noundef %16)
  store ptr %17, ptr %6, align 8
  ret void
}

; Function Attrs: mustprogress uwtable
define void @_ZNK15FilterColorProc10filterNameEi(ptr dead_on_unwind noalias writable sret(%class.QString) align 8 %0, ptr noundef nonnull align 8 dereferenceable(80) %1, i32 noundef %2) unnamed_addr #3 align 2 {
  %4 = alloca ptr, align 8
  %5 = alloca ptr, align 8
  %6 = alloca i32, align 4
  store ptr %0, ptr %4, align 8
  store ptr %1, ptr %5, align 8
  store i32 %2, ptr %6, align 4
  %7 = load i32, ptr %6, align 4
  switch i32 %7, label %36 [
    i32 0, label %8
    i32 1, label %9
    i32 2, label %10
    i32 5, label %11
    i32 4, label %12
    i32 6, label %13
    i32 7, label %14
    i32 9, label %15
    i32 8, label %16
    i32 10, label %17
    i32 11, label %18
    i32 12, label %19
    i32 13, label %20
    i32 14, label %21
    i32 15, label %22
    i32 16, label %23
    i32 17, label %24
    i32 18, label %25
    i32 19, label %26
    i32 20, label %27
    i32 23, label %28
    i32 24, label %29
    i32 21, label %30
    i32 22, label %31
    i32 25, label %32
    i32 26, label %33
    i32 27, label %34
    i32 28, label %35
  ]

8:                                                ; preds = %3
  call void @_ZN7QStringC2EPKc(ptr noundef nonnull align 8 dereferenceable(8) %0, ptr noundef @.str.38)
  br label %38

9:                                                ; preds = %3
  call void @_ZN7QStringC2EPKc(ptr noundef nonnull align 8 dereferenceable(8) %0, ptr noundef @.str.39)
  br label %38

10:                                               ; preds = %3
  call void @_ZN7QStringC2EPKc(ptr noundef nonnull align 8 dereferenceable(8) %0, ptr noundef @.str.40)
  br label %38

11:                                               ; preds = %3
  call void @_ZN7QStringC2EPKc(ptr noundef nonnull align 8 dereferenceable(8) %0, ptr noundef @.str.41)
  br label %38

12:                                               ; preds = %3
  call void @_ZN7QStringC2EPKc(ptr noundef nonnull align 8 dereferenceable(8) %0, ptr noundef @.str.42)
  br label %38

13:                                               ; preds = %3
  call void @_ZN7QStringC2EPKc(ptr noundef nonnull align 8 dereferenceable(8) %0, ptr noundef @.str.43)
  br label %38

14:                                               ; preds = %3
  call void @_ZN7QStringC2EPKc(ptr noundef nonnull align 8 dereferenceable(8) %0, ptr noundef @.str.44)
  br label %38

15:                                               ; preds = %3
  call void @_ZN7QStringC2EPKc(ptr noundef nonnull align 8 dereferenceable(8) %0, ptr noundef @.str.45)
  br label %38

16:                                               ; preds = %3
  call void @_ZN7QStringC2EPKc(ptr noundef nonnull align 8 dereferenceable(8) %0, ptr noundef @.str.46)
  br label %38

17:                                               ; preds = %3
  call void @_ZN7QStringC2EPKc(ptr noundef nonnull align 8 dereferenceable(8) %0, ptr noundef @.str.47)
  br label %38

18:                                               ; preds = %3
  call void @_ZN7QStringC2EPKc(ptr noundef nonnull align 8 dereferenceable(8) %0, ptr noundef @.str.48)
  br label %38

19:                                               ; preds = %3
  call void @_ZN7QStringC2EPKc(ptr noundef nonnull align 8 dereferenceable(8) %0, ptr noundef @.str.49)
  br label %38

20:                                               ; preds = %3
  call void @_ZN7QStringC2EPKc(ptr noundef nonnull align 8 dereferenceable(8) %0, ptr noundef @.str.50)
  br label %38

21:                                               ; preds = %3
  call void @_ZN7QStringC2EPKc(ptr noundef nonnull align 8 dereferenceable(8) %0, ptr noundef @.str.51)
  br label %38

22:                                               ; preds = %3
  call void @_ZN7QStringC2EPKc(ptr noundef nonnull align 8 dereferenceable(8) %0, ptr noundef @.str.52)
  br label %38

23:                                               ; preds = %3
  call void @_ZN7QStringC2EPKc(ptr noundef nonnull align 8 dereferenceable(8) %0, ptr noundef @.str.53)
  br label %38

24:                                               ; preds = %3
  call void @_ZN7QStringC2EPKc(ptr noundef nonnull align 8 dereferenceable(8) %0, ptr noundef @.str.54)
  br label %38

25:                                               ; preds = %3
  call void @_ZN7QStringC2EPKc(ptr noundef nonnull align 8 dereferenceable(8) %0, ptr noundef @.str.55)
  br label %38

26:                                               ; preds = %3
  call void @_ZN7QStringC2EPKc(ptr noundef nonnull align 8 dereferenceable(8) %0, ptr noundef @.str.56)
  br label %38

27:                                               ; preds = %3
  call void @_ZN7QStringC2EPKc(ptr noundef nonnull align 8 dereferenceable(8) %0, ptr noundef @.str.57)
  br label %38

28:                                               ; preds = %3
  call void @_ZN7QStringC2EPKc(ptr noundef nonnull align 8 dereferenceable(8) %0, ptr noundef @.str.58)
  br label %38

29:                                               ; preds = %3
  call void @_ZN7QStringC2EPKc(ptr noundef nonnull align 8 dereferenceable(8) %0, ptr noundef @.str.59)
  br label %38

30:                                               ; preds = %3
  call void @_ZN7QStringC2EPKc(ptr noundef nonnull align 8 dereferenceable(8) %0, ptr noundef @.str.60)
  br label %38

31:                                               ; preds = %3
  call void @_ZN7QStringC2EPKc(ptr noundef nonnull align 8 dereferenceable(8) %0, ptr noundef @.str.61)
  br label %38

32:                                               ; preds = %3
  call void @_ZN7QStringC2EPKc(ptr noundef nonnull align 8 dereferenceable(8) %0, ptr noundef @.str.62)
  br label %38

33:                                               ; preds = %3
  call void @_ZN7QStringC2EPKc(ptr noundef nonnull align 8 dereferenceable(8) %0, ptr noundef @.str.63)
  br label %38

34:                                               ; preds = %3
  call void @_ZN7QStringC2EPKc(ptr noundef nonnull align 8 dereferenceable(8) %0, ptr noundef @.str.64)
  br label %38

35:                                               ; preds = %3
  call void @_ZN7QStringC2EPKc(ptr noundef nonnull align 8 dereferenceable(8) %0, ptr noundef @.str.65)
  br label %38

36:                                               ; preds = %3
  br label %37

37:                                               ; preds = %36
  call void @_ZN7QStringC2EPKc(ptr noundef nonnull align 8 dereferenceable(8) %0, ptr noundef @.str.66)
  br label %38

38:                                               ; preds = %37, %35, %34, %33, %32, %31, %30, %29, %28, %27, %26, %25, %24, %23, %22, %21, %20, %19, %18, %17, %16, %15, %14, %13, %12, %11, %10, %9, %8
  ret void
}