; Function Attrs: mustprogress uwtable
define void @_ZNK15FilterColorProc10filterNameEi(ptr dead_on_unwind noalias nocapture writable writeonly sret(%class.QString) align 8 %0, ptr nocapture nonnull readnone align 8 %1, i32 noundef %2) unnamed_addr #7 align 2 {
  switch i32 %2, label %60 [
    i32 0, label %4
    i32 1, label %6
    i32 2, label %8
    i32 5, label %10
    i32 4, label %12
    i32 6, label %14
    i32 7, label %16
    i32 9, label %18
    i32 8, label %20
    i32 10, label %22
    i32 11, label %24
    i32 12, label %26
    i32 13, label %28
    i32 14, label %30
    i32 15, label %32
    i32 16, label %34
    i32 17, label %36
    i32 18, label %38
    i32 19, label %40
    i32 20, label %42
    i32 23, label %44
    i32 24, label %46
    i32 21, label %48
    i32 22, label %50
    i32 25, label %52
    i32 26, label %54
    i32 27, label %56
    i32 28, label %58
  ]

4:                                                ; preds = %3
  %5 = tail call noundef ptr @_ZN7QString16fromAscii_helperEPKci(ptr noundef nonnull @.str.38, i32 noundef 20)
  br label %62

6:                                                ; preds = %3
  %7 = tail call noundef ptr @_ZN7QString16fromAscii_helperEPKci(ptr noundef nonnull @.str.39, i32 noundef 25)
  br label %62

8:                                                ; preds = %3
  %9 = tail call noundef ptr @_ZN7QString16fromAscii_helperEPKci(ptr noundef nonnull @.str.40, i32 noundef 38)
  br label %62

10:                                               ; preds = %3
  %11 = tail call noundef ptr @_ZN7QString16fromAscii_helperEPKci(ptr noundef nonnull @.str.41, i32 noundef 19)
  br label %62

12:                                               ; preds = %3
  %13 = tail call noundef ptr @_ZN7QString16fromAscii_helperEPKci(ptr noundef nonnull @.str.42, i32 noundef 30)
  br label %62

14:                                               ; preds = %3
  %15 = tail call noundef ptr @_ZN7QString16fromAscii_helperEPKci(ptr noundef nonnull @.str.43, i32 noundef 26)
  br label %62

16:                                               ; preds = %3
  %17 = tail call noundef ptr @_ZN7QString16fromAscii_helperEPKci(ptr noundef nonnull @.str.44, i32 noundef 25)
  br label %62

18:                                               ; preds = %3
  %19 = tail call noundef ptr @_ZN7QString16fromAscii_helperEPKci(ptr noundef nonnull @.str.45, i32 noundef 21)
  br label %62

20:                                               ; preds = %3
  %21 = tail call noundef ptr @_ZN7QString16fromAscii_helperEPKci(ptr noundef nonnull @.str.46, i32 noundef 26)
  br label %62

22:                                               ; preds = %3
  %23 = tail call noundef ptr @_ZN7QString16fromAscii_helperEPKci(ptr noundef nonnull @.str.47, i32 noundef 12)
  br label %62

24:                                               ; preds = %3
  %25 = tail call noundef ptr @_ZN7QString16fromAscii_helperEPKci(ptr noundef nonnull @.str.48, i32 noundef 11)
  br label %62

26:                                               ; preds = %3
  %27 = tail call noundef ptr @_ZN7QString16fromAscii_helperEPKci(ptr noundef nonnull @.str.49, i32 noundef 24)
  br label %62

28:                                               ; preds = %3
  %29 = tail call noundef ptr @_ZN7QString16fromAscii_helperEPKci(ptr noundef nonnull @.str.50, i32 noundef 20)
  br label %62

30:                                               ; preds = %3
  %31 = tail call noundef ptr @_ZN7QString16fromAscii_helperEPKci(ptr noundef nonnull @.str.51, i32 noundef 23)
  br label %62

32:                                               ; preds = %3
  %33 = tail call noundef ptr @_ZN7QString16fromAscii_helperEPKci(ptr noundef nonnull @.str.52, i32 noundef 26)
  br label %62

34:                                               ; preds = %3
  %35 = tail call noundef ptr @_ZN7QString16fromAscii_helperEPKci(ptr noundef nonnull @.str.53, i32 noundef 24)
  br label %62

36:                                               ; preds = %3
  %37 = tail call noundef ptr @_ZN7QString16fromAscii_helperEPKci(ptr noundef nonnull @.str.54, i32 noundef 19)
  br label %62

38:                                               ; preds = %3
  %39 = tail call noundef ptr @_ZN7QString16fromAscii_helperEPKci(ptr noundef nonnull @.str.55, i32 noundef 61)
  br label %62

40:                                               ; preds = %3
  %41 = tail call noundef ptr @_ZN7QString16fromAscii_helperEPKci(ptr noundef nonnull @.str.56, i32 noundef 30)
  br label %62

42:                                               ; preds = %3
  %43 = tail call noundef ptr @_ZN7QString16fromAscii_helperEPKci(ptr noundef nonnull @.str.57, i32 noundef 28)
  br label %62

44:                                               ; preds = %3
  %45 = tail call noundef ptr @_ZN7QString16fromAscii_helperEPKci(ptr noundef nonnull @.str.58, i32 noundef 30)
  br label %62

46:                                               ; preds = %3
  %47 = tail call noundef ptr @_ZN7QString16fromAscii_helperEPKci(ptr noundef nonnull @.str.59, i32 noundef 28)
  br label %62

48:                                               ; preds = %3
  %49 = tail call noundef ptr @_ZN7QString16fromAscii_helperEPKci(ptr noundef nonnull @.str.60, i32 noundef 30)
  br label %62

50:                                               ; preds = %3
  %51 = tail call noundef ptr @_ZN7QString16fromAscii_helperEPKci(ptr noundef nonnull @.str.61, i32 noundef 33)
  br label %62

52:                                               ; preds = %3
  %53 = tail call noundef ptr @_ZN7QString16fromAscii_helperEPKci(ptr noundef nonnull @.str.62, i32 noundef 17)
  br label %62

54:                                               ; preds = %3
  %55 = tail call noundef ptr @_ZN7QString16fromAscii_helperEPKci(ptr noundef nonnull @.str.63, i32 noundef 22)
  br label %62

56:                                               ; preds = %3
  %57 = tail call noundef ptr @_ZN7QString16fromAscii_helperEPKci(ptr noundef nonnull @.str.64, i32 noundef 32)
  br label %62

58:                                               ; preds = %3
  %59 = tail call noundef ptr @_ZN7QString16fromAscii_helperEPKci(ptr noundef nonnull @.str.65, i32 noundef 32)
  br label %62

60:                                               ; preds = %3
  %61 = tail call noundef ptr @_ZN7QString16fromAscii_helperEPKci(ptr noundef nonnull @.str.66, i32 noundef 6)
  br label %62

62:                                               ; preds = %60, %58, %56, %54, %52, %50, %48, %46, %44, %42, %40, %38, %36, %34, %32, %30, %28, %26, %24, %22, %20, %18, %16, %14, %12, %10, %8, %6, %4
  %.sink = phi ptr [ %61, %60 ], [ %59, %58 ], [ %57, %56 ], [ %55, %54 ], [ %53, %52 ], [ %51, %50 ], [ %49, %48 ], [ %47, %46 ], [ %45, %44 ], [ %43, %42 ], [ %41, %40 ], [ %39, %38 ], [ %37, %36 ], [ %35, %34 ], [ %33, %32 ], [ %31, %30 ], [ %29, %28 ], [ %27, %26 ], [ %25, %24 ], [ %23, %22 ], [ %21, %20 ], [ %19, %18 ], [ %17, %16 ], [ %15, %14 ], [ %13, %12 ], [ %11, %10 ], [ %9, %8 ], [ %7, %6 ], [ %5, %4 ]
  store ptr %.sink, ptr %0, align 8
  ret void
}